; Function Attrs: mustprogress nofree norecurse nosync nounwind willreturn memory(read, argmem: write, inaccessiblemem: none) uwtable
define hidden void @je_tsd_san_init(ptr noundef writeonly captures(none) initializes((128, 144)) %0) local_unnamed_addr #2 {
  %2 = load i64, ptr @je_opt_san_guard_small, align 8, !tbaa !14
  %3 = getelementptr inbounds nuw i8, ptr %0, i64 128
  store i64 %2, ptr %3, align 8, !tbaa !14
  %4 = load i64, ptr @je_opt_san_guard_large, align 8, !tbaa !14
  %5 = getelementptr inbounds nuw i8, ptr %0, i64 136
  store i64 %4, ptr %5, align 8, !tbaa !14
  ret void
}